target datalayout = "e-m:e-p270:32:32-p271:32:32-p272:64:64-i64:64-i128:128-f80:128-n8:16:32:64-S128"
target triple = "x86_64-unknown-linux-gnu"

%"class.facebook::velox::aggregate::ValueSet" = type { ptr }

; Function Attrs: mustprogress uwtable
define void @_ZNK8facebook5velox9aggregate8ValueSet4freeEPNS0_19HashStringAllocator6HeaderE(ptr noundef nonnull align 8 dereferenceable(8) %this, ptr noundef %header) #0 align 2 {
entry:
  %this.addr = alloca ptr, align 8
  %header.addr = alloca ptr, align 8
  store ptr %this, ptr %this.addr, align 8
  store ptr %header, ptr %header.addr, align 8
  %this1 = load ptr, ptr %this.addr, align 8
  %0 = load ptr, ptr %header.addr, align 8
  %cmp = icmp ne ptr %0, null
  %lnot = xor i1 %cmp, true
  br i1 %lnot, label %if.then, label %if.end

if.then:                                          ; preds = %entry
  call void @llvm.trap()
  br label %if.end

if.end:                                           ; preds = %if.then, %entry
  %allocator_ = getelementptr inbounds %"class.facebook::velox::aggregate::ValueSet", ptr %this1, i32 0, i32 0
  %1 = load ptr, ptr %allocator_, align 8
  %2 = load ptr, ptr %header.addr, align 8
  call void @_ZN8facebook5velox19HashStringAllocator4freeEPNS1_6HeaderE(ptr noundef nonnull align 8 dereferenceable(37416) %1, ptr noundef %2)
  ret void
}