; Function Attrs: mustprogress uwtable
define void @_ZNK8facebook5velox9aggregate8ValueSet4freeEPNS0_19HashStringAllocator6HeaderE(ptr nocapture noundef nonnull readonly align 8 dereferenceable(8) %this, ptr noundef %header) local_unnamed_addr #0 align 2 {
entry:
  %cmp.not = icmp eq ptr %header, null
  br i1 %cmp.not, label %if.then, label %if.end

if.then:                                          ; preds = %entry
  tail call void @llvm.trap()
  unreachable

if.end:                                           ; preds = %entry
  %0 = load ptr, ptr %this, align 8
  tail call void @_ZN8facebook5velox19HashStringAllocator4freeEPNS1_6HeaderE(ptr noundef nonnull align 8 dereferenceable(37416) %0, ptr noundef nonnull %header)
  ret void
}